target datalayout = "e-m:e-p270:32:32-p271:32:32-p272:64:64-i64:64-i128:128-f80:128-n8:16:32:64-S128"
target triple = "x86_64-pc-linux-gnu"

%struct.VC2EncContext = type { ptr, %struct.PutBitContext, [3 x %struct.Plane], ptr, %struct.DiracVersionInfo, ptr, [3 x %struct.TransformArgs], i32, i32, i32, i32, i32, i32, i32, [5 x [4 x i8]], i32, [116 x [2 x i32]], i32, i32, i32, i32, i32, i32, i32, i32, i32, i32, i32, double, i32, i32, i32, i32, i32, i32, i32, i32, i32 }
%struct.PutBitContext = type { i32, i32, ptr, ptr, ptr }
%struct.Plane = type { [5 x [4 x %struct.SubBand]], ptr, i32, i32, i32, i32, i64 }
%struct.SubBand = type { ptr, i64, i32, i32 }
%struct.DiracVersionInfo = type { i32, i32 }
%struct.TransformArgs = type { ptr, ptr, ptr, i64, i32, %struct.VC2TransformContext }
%struct.VC2TransformContext = type { ptr, i32, [7 x ptr] }

; Function Attrs: nounwind uwtable
define internal i32 @dwt_plane(ptr noundef %0, ptr noundef %1) #6 {
  %3 = alloca ptr, align 8
  %4 = alloca ptr, align 8
  %5 = alloca ptr, align 8
  %6 = alloca ptr, align 8
  %7 = alloca ptr, align 8
  %8 = alloca i64, align 8
  %9 = alloca i32, align 4
  %10 = alloca ptr, align 8
  %11 = alloca ptr, align 8
  %12 = alloca ptr, align 8
  %13 = alloca i32, align 4
  %14 = alloca i32, align 4
  %15 = alloca i32, align 4
  %16 = alloca i32, align 4
  %17 = alloca i32, align 4
  %18 = alloca i32, align 4
  %19 = alloca i64, align 8
  %20 = alloca ptr, align 8
  %21 = alloca ptr, align 8
  %22 = alloca ptr, align 8
  store ptr %0, ptr %3, align 8, !tbaa !4
  store ptr %1, ptr %4, align 8, !tbaa !149
  call void @llvm.lifetime.start.p0(i64 8, ptr %5) #13
  %23 = load ptr, ptr %4, align 8, !tbaa !149
  store ptr %23, ptr %5, align 8, !tbaa !150
  call void @llvm.lifetime.start.p0(i64 8, ptr %6) #13
  %24 = load ptr, ptr %5, align 8, !tbaa !150
  %25 = getelementptr inbounds nuw %struct.TransformArgs, ptr %24, i32 0, i32 0
  %26 = load ptr, ptr %25, align 8, !tbaa !129
  store ptr %26, ptr %6, align 8, !tbaa !29
  call void @llvm.lifetime.start.p0(i64 8, ptr %7) #13
  %27 = load ptr, ptr %5, align 8, !tbaa !150
  %28 = getelementptr inbounds nuw %struct.TransformArgs, ptr %27, i32 0, i32 2
  %29 = load ptr, ptr %28, align 8, !tbaa !134
  store ptr %29, ptr %7, align 8, !tbaa !149
  call void @llvm.lifetime.start.p0(i64 8, ptr %8) #13
  %30 = load ptr, ptr %5, align 8, !tbaa !150
  %31 = getelementptr inbounds nuw %struct.TransformArgs, ptr %30, i32 0, i32 3
  %32 = load i64, ptr %31, align 8, !tbaa !135
  store i64 %32, ptr %8, align 8, !tbaa !106
  call void @llvm.lifetime.start.p0(i64 4, ptr %9) #13
  %33 = load ptr, ptr %5, align 8, !tbaa !150
  %34 = getelementptr inbounds nuw %struct.TransformArgs, ptr %33, i32 0, i32 4
  %35 = load i32, ptr %34, align 8, !tbaa !132
  store i32 %35, ptr %9, align 4, !tbaa !49
  call void @llvm.lifetime.start.p0(i64 8, ptr %10) #13
  %36 = load ptr, ptr %5, align 8, !tbaa !150
  %37 = getelementptr inbounds nuw %struct.TransformArgs, ptr %36, i32 0, i32 1
  %38 = load ptr, ptr %37, align 8, !tbaa !133
  store ptr %38, ptr %10, align 8, !tbaa !83
  call void @llvm.lifetime.start.p0(i64 8, ptr %11) #13
  %39 = load ptr, ptr %5, align 8, !tbaa !150
  %40 = getelementptr inbounds nuw %struct.TransformArgs, ptr %39, i32 0, i32 5
  store ptr %40, ptr %11, align 8, !tbaa !152
  call void @llvm.lifetime.start.p0(i64 8, ptr %12) #13
  %41 = load ptr, ptr %10, align 8, !tbaa !83
  %42 = getelementptr inbounds nuw %struct.Plane, ptr %41, i32 0, i32 1
  %43 = load ptr, ptr %42, align 8, !tbaa !92
  store ptr %43, ptr %12, align 8, !tbaa !112
  call void @llvm.lifetime.start.p0(i64 4, ptr %13) #13
  %44 = load ptr, ptr %6, align 8, !tbaa !29
  %45 = getelementptr inbounds nuw %struct.VC2EncContext, ptr %44, i32 0, i32 29
  %46 = load i32, ptr %45, align 8, !tbaa !154
  store i32 %46, ptr %13, align 4, !tbaa !49
  call void @llvm.lifetime.start.p0(i64 4, ptr %14) #13
  %47 = load ptr, ptr %6, align 8, !tbaa !29
  %48 = getelementptr inbounds nuw %struct.VC2EncContext, ptr %47, i32 0, i32 34
  %49 = load i32, ptr %48, align 4, !tbaa !48
  %50 = add nsw i32 1, %49
  store i32 %50, ptr %14, align 4, !tbaa !49
  call void @llvm.lifetime.start.p0(i64 4, ptr %15) #13
  call void @llvm.lifetime.start.p0(i64 4, ptr %16) #13
  call void @llvm.lifetime.start.p0(i64 4, ptr %17) #13
  call void @llvm.lifetime.start.p0(i64 4, ptr %18) #13
  call void @llvm.lifetime.start.p0(i64 8, ptr %19) #13
  %51 = load i64, ptr %8, align 8, !tbaa !106
  %52 = load ptr, ptr %6, align 8, !tbaa !29
  %53 = getelementptr inbounds nuw %struct.VC2EncContext, ptr %52, i32 0, i32 8
  %54 = load i32, ptr %53, align 4, !tbaa !80
  %55 = sub nsw i32 %54, 1
  %56 = zext i32 %55 to i64
  %57 = ashr i64 %51, %56
  store i64 %57, ptr %19, align 8, !tbaa !106
  %58 = load i32, ptr %9, align 4, !tbaa !49
  %59 = icmp eq i32 %58, 1
  br i1 %59, label %60, label %63

60:                                               ; preds = %2
  store i32 0, ptr %18, align 4, !tbaa !49
  %61 = load i64, ptr %19, align 8, !tbaa !106
  %62 = shl i64 %61, 1
  store i64 %62, ptr %19, align 8, !tbaa !106
  br label %73

63:                                               ; preds = %2
  %64 = load i32, ptr %9, align 4, !tbaa !49
  %65 = icmp eq i32 %64, 2
  br i1 %65, label %66, label %71

66:                                               ; preds = %63
  %67 = load i64, ptr %19, align 8, !tbaa !106
  %68 = trunc i64 %67 to i32
  store i32 %68, ptr %18, align 4, !tbaa !49
  %69 = load i64, ptr %19, align 8, !tbaa !106
  %70 = shl i64 %69, 1
  store i64 %70, ptr %19, align 8, !tbaa !106
  br label %72

71:                                               ; preds = %63
  store i32 0, ptr %18, align 4, !tbaa !49
  br label %72

72:                                               ; preds = %71, %66
  br label %73

73:                                               ; preds = %72, %60
  %74 = load ptr, ptr %6, align 8, !tbaa !29
  %75 = getelementptr inbounds nuw %struct.VC2EncContext, ptr %74, i32 0, i32 8
  %76 = load i32, ptr %75, align 4, !tbaa !80
  %77 = icmp eq i32 %76, 1
  br i1 %77, label %78, label %143

78:                                               ; preds = %73
  call void @llvm.lifetime.start.p0(i64 8, ptr %20) #13
  %79 = load ptr, ptr %7, align 8, !tbaa !149
  %80 = load i32, ptr %18, align 4, !tbaa !49
  %81 = sext i32 %80 to i64
  %82 = getelementptr inbounds i8, ptr %79, i64 %81
  store ptr %82, ptr %20, align 8, !tbaa !114
  store i32 0, ptr %16, align 4, !tbaa !49
  br label %83

83:                                               ; preds = %138, %78
  %84 = load i32, ptr %16, align 4, !tbaa !49
  %85 = load ptr, ptr %10, align 8, !tbaa !83
  %86 = getelementptr inbounds nuw %struct.Plane, ptr %85, i32 0, i32 3
  %87 = load i32, ptr %86, align 4, !tbaa !87
  %88 = load i32, ptr %14, align 4, !tbaa !49
  %89 = mul nsw i32 %87, %88
  %90 = icmp slt i32 %84, %89
  br i1 %90, label %91, label %142

91:                                               ; preds = %83
  store i32 0, ptr %15, align 4, !tbaa !49
  br label %92

92:                                               ; preds = %113, %91
  %93 = load i32, ptr %15, align 4, !tbaa !49
  %94 = load ptr, ptr %10, align 8, !tbaa !83
  %95 = getelementptr inbounds nuw %struct.Plane, ptr %94, i32 0, i32 2
  %96 = load i32, ptr %95, align 8, !tbaa !85
  %97 = icmp slt i32 %93, %96
  br i1 %97, label %98, label %116

98:                                               ; preds = %92
  %99 = load ptr, ptr %20, align 8, !tbaa !114
  %100 = load i32, ptr %15, align 4, !tbaa !49
  %101 = sext i32 %100 to i64
  %102 = getelementptr inbounds i8, ptr %99, i64 %101
  %103 = load i8, ptr %102, align 1, !tbaa !125
  %104 = zext i8 %103 to i32
  %105 = load ptr, ptr %6, align 8, !tbaa !29
  %106 = getelementptr inbounds nuw %struct.VC2EncContext, ptr %105, i32 0, i32 7
  %107 = load i32, ptr %106, align 8, !tbaa !82
  %108 = sub nsw i32 %104, %107
  %109 = load ptr, ptr %12, align 8, !tbaa !112
  %110 = load i32, ptr %15, align 4, !tbaa !49
  %111 = sext i32 %110 to i64
  %112 = getelementptr inbounds i32, ptr %109, i64 %111
  store i32 %108, ptr %112, align 4, !tbaa !49
  br label %113

113:                                              ; preds = %98
  %114 = load i32, ptr %15, align 4, !tbaa !49
  %115 = add nsw i32 %114, 1
  store i32 %115, ptr %15, align 4, !tbaa !49
  br label %92, !llvm.loop !155

116:                                              ; preds = %92
  %117 = load ptr, ptr %12, align 8, !tbaa !112
  %118 = load i32, ptr %15, align 4, !tbaa !49
  %119 = sext i32 %118 to i64
  %120 = getelementptr inbounds i32, ptr %117, i64 %119
  %121 = load ptr, ptr %10, align 8, !tbaa !83
  %122 = getelementptr inbounds nuw %struct.Plane, ptr %121, i32 0, i32 6
  %123 = load i64, ptr %122, align 8, !tbaa !91
  %124 = load ptr, ptr %10, align 8, !tbaa !83
  %125 = getelementptr inbounds nuw %struct.Plane, ptr %124, i32 0, i32 2
  %126 = load i32, ptr %125, align 8, !tbaa !85
  %127 = sext i32 %126 to i64
  %128 = sub nsw i64 %123, %127
  %129 = mul i64 %128, 4
  call void @llvm.memset.p0.i64(ptr align 4 %120, i8 0, i64 %129, i1 false)
  %130 = load ptr, ptr %10, align 8, !tbaa !83
  %131 = getelementptr inbounds nuw %struct.Plane, ptr %130, i32 0, i32 6
  %132 = load i64, ptr %131, align 8, !tbaa !91
  %133 = load ptr, ptr %12, align 8, !tbaa !112
  %134 = getelementptr inbounds i32, ptr %133, i64 %132
  store ptr %134, ptr %12, align 8, !tbaa !112
  %135 = load i64, ptr %19, align 8, !tbaa !106
  %136 = load ptr, ptr %20, align 8, !tbaa !114
  %137 = getelementptr inbounds i8, ptr %136, i64 %135
  store ptr %137, ptr %20, align 8, !tbaa !114
  br label %138

138:                                              ; preds = %116
  %139 = load i32, ptr %14, align 4, !tbaa !49
  %140 = load i32, ptr %16, align 4, !tbaa !49
  %141 = add nsw i32 %140, %139
  store i32 %141, ptr %16, align 4, !tbaa !49
  br label %83, !llvm.loop !156

142:                                              ; preds = %83
  call void @llvm.lifetime.end.p0(i64 8, ptr %20) #13
  br label %208

143:                                              ; preds = %73
  call void @llvm.lifetime.start.p0(i64 8, ptr %21) #13
  %144 = load ptr, ptr %7, align 8, !tbaa !149
  %145 = load i32, ptr %18, align 4, !tbaa !49
  %146 = sext i32 %145 to i64
  %147 = getelementptr inbounds i16, ptr %144, i64 %146
  store ptr %147, ptr %21, align 8, !tbaa !157
  store i32 0, ptr %16, align 4, !tbaa !49
  br label %148

148:                                              ; preds = %203, %143
  %149 = load i32, ptr %16, align 4, !tbaa !49
  %150 = load ptr, ptr %10, align 8, !tbaa !83
  %151 = getelementptr inbounds nuw %struct.Plane, ptr %150, i32 0, i32 3
  %152 = load i32, ptr %151, align 4, !tbaa !87
  %153 = load i32, ptr %14, align 4, !tbaa !49
  %154 = mul nsw i32 %152, %153
  %155 = icmp slt i32 %149, %154
  br i1 %155, label %156, label %207

156:                                              ; preds = %148
  store i32 0, ptr %15, align 4, !tbaa !49
  br label %157

157:                                              ; preds = %178, %156
  %158 = load i32, ptr %15, align 4, !tbaa !49
  %159 = load ptr, ptr %10, align 8, !tbaa !83
  %160 = getelementptr inbounds nuw %struct.Plane, ptr %159, i32 0, i32 2
  %161 = load i32, ptr %160, align 8, !tbaa !85
  %162 = icmp slt i32 %158, %161
  br i1 %162, label %163, label %181

163:                                              ; preds = %157
  %164 = load ptr, ptr %21, align 8, !tbaa !157
  %165 = load i32, ptr %15, align 4, !tbaa !49
  %166 = sext i32 %165 to i64
  %167 = getelementptr inbounds i16, ptr %164, i64 %166
  %168 = load i16, ptr %167, align 2, !tbaa !126
  %169 = zext i16 %168 to i32
  %170 = load ptr, ptr %6, align 8, !tbaa !29
  %171 = getelementptr inbounds nuw %struct.VC2EncContext, ptr %170, i32 0, i32 7
  %172 = load i32, ptr %171, align 8, !tbaa !82
  %173 = sub nsw i32 %169, %172
  %174 = load ptr, ptr %12, align 8, !tbaa !112
  %175 = load i32, ptr %15, align 4, !tbaa !49
  %176 = sext i32 %175 to i64
  %177 = getelementptr inbounds i32, ptr %174, i64 %176
  store i32 %173, ptr %177, align 4, !tbaa !49
  br label %178

178:                                              ; preds = %163
  %179 = load i32, ptr %15, align 4, !tbaa !49
  %180 = add nsw i32 %179, 1
  store i32 %180, ptr %15, align 4, !tbaa !49
  br label %157, !llvm.loop !158

181:                                              ; preds = %157
  %182 = load ptr, ptr %12, align 8, !tbaa !112
  %183 = load i32, ptr %15, align 4, !tbaa !49
  %184 = sext i32 %183 to i64
  %185 = getelementptr inbounds i32, ptr %182, i64 %184
  %186 = load ptr, ptr %10, align 8, !tbaa !83
  %187 = getelementptr inbounds nuw %struct.Plane, ptr %186, i32 0, i32 6
  %188 = load i64, ptr %187, align 8, !tbaa !91
  %189 = load ptr, ptr %10, align 8, !tbaa !83
  %190 = getelementptr inbounds nuw %struct.Plane, ptr %189, i32 0, i32 2
  %191 = load i32, ptr %190, align 8, !tbaa !85
  %192 = sext i32 %191 to i64
  %193 = sub nsw i64 %188, %192
  %194 = mul i64 %193, 4
  call void @llvm.memset.p0.i64(ptr align 4 %185, i8 0, i64 %194, i1 false)
  %195 = load ptr, ptr %10, align 8, !tbaa !83
  %196 = getelementptr inbounds nuw %struct.Plane, ptr %195, i32 0, i32 6
  %197 = load i64, ptr %196, align 8, !tbaa !91
  %198 = load ptr, ptr %12, align 8, !tbaa !112
  %199 = getelementptr inbounds i32, ptr %198, i64 %197
  store ptr %199, ptr %12, align 8, !tbaa !112
  %200 = load i64, ptr %19, align 8, !tbaa !106
  %201 = load ptr, ptr %21, align 8, !tbaa !157
  %202 = getelementptr inbounds i16, ptr %201, i64 %200
  store ptr %202, ptr %21, align 8, !tbaa !157
  br label %203

203:                                              ; preds = %181
  %204 = load i32, ptr %14, align 4, !tbaa !49
  %205 = load i32, ptr %16, align 4, !tbaa !49
  %206 = add nsw i32 %205, %204
  store i32 %206, ptr %16, align 4, !tbaa !49
  br label %148, !llvm.loop !159

207:                                              ; preds = %148
  call void @llvm.lifetime.end.p0(i64 8, ptr %21) #13
  br label %208

208:                                              ; preds = %207, %142
  %209 = load ptr, ptr %12, align 8, !tbaa !112
  %210 = load ptr, ptr %10, align 8, !tbaa !83
  %211 = getelementptr inbounds nuw %struct.Plane, ptr %210, i32 0, i32 6
  %212 = load i64, ptr %211, align 8, !tbaa !91
  %213 = load ptr, ptr %10, align 8, !tbaa !83
  %214 = getelementptr inbounds nuw %struct.Plane, ptr %213, i32 0, i32 5
  %215 = load i32, ptr %214, align 4, !tbaa !90
  %216 = load ptr, ptr %10, align 8, !tbaa !83
  %217 = getelementptr inbounds nuw %struct.Plane, ptr %216, i32 0, i32 3
  %218 = load i32, ptr %217, align 4, !tbaa !87
  %219 = sub nsw i32 %215, %218
  %220 = sext i32 %219 to i64
  %221 = mul nsw i64 %212, %220
  %222 = mul i64 %221, 4
  call void @llvm.memset.p0.i64(ptr align 4 %209, i8 0, i64 %222, i1 false)
  %223 = load ptr, ptr %6, align 8, !tbaa !29
  %224 = getelementptr inbounds nuw %struct.VC2EncContext, ptr %223, i32 0, i32 30
  %225 = load i32, ptr %224, align 4, !tbaa !88
  %226 = sub nsw i32 %225, 1
  store i32 %226, ptr %17, align 4, !tbaa !49
  br label %227

227:                                              ; preds = %256, %208
  %228 = load i32, ptr %17, align 4, !tbaa !49
  %229 = icmp sge i32 %228, 0
  br i1 %229, label %230, label %259

230:                                              ; preds = %227
  call void @llvm.lifetime.start.p0(i64 8, ptr %22) #13
  %231 = load ptr, ptr %10, align 8, !tbaa !83
  %232 = getelementptr inbounds nuw %struct.Plane, ptr %231, i32 0, i32 0
  %233 = load i32, ptr %17, align 4, !tbaa !49
  %234 = sext i32 %233 to i64
  %235 = getelementptr inbounds [5 x [4 x %struct.SubBand]], ptr %232, i64 0, i64 %234
  %236 = getelementptr inbounds [4 x %struct.SubBand], ptr %235, i64 0, i64 0
  store ptr %236, ptr %22, align 8, !tbaa !93
  %237 = load ptr, ptr %11, align 8, !tbaa !152
  %238 = getelementptr inbounds nuw %struct.VC2TransformContext, ptr %237, i32 0, i32 2
  %239 = load i32, ptr %13, align 4, !tbaa !49
  %240 = sext i32 %239 to i64
  %241 = getelementptr inbounds [7 x ptr], ptr %238, i64 0, i64 %240
  %242 = load ptr, ptr %241, align 8, !tbaa !149
  %243 = load ptr, ptr %11, align 8, !tbaa !152
  %244 = load ptr, ptr %10, align 8, !tbaa !83
  %245 = getelementptr inbounds nuw %struct.Plane, ptr %244, i32 0, i32 1
  %246 = load ptr, ptr %245, align 8, !tbaa !92
  %247 = load ptr, ptr %10, align 8, !tbaa !83
  %248 = getelementptr inbounds nuw %struct.Plane, ptr %247, i32 0, i32 6
  %249 = load i64, ptr %248, align 8, !tbaa !91
  %250 = load ptr, ptr %22, align 8, !tbaa !93
  %251 = getelementptr inbounds nuw %struct.SubBand, ptr %250, i32 0, i32 2
  %252 = load i32, ptr %251, align 8, !tbaa !95
  %253 = load ptr, ptr %22, align 8, !tbaa !93
  %254 = getelementptr inbounds nuw %struct.SubBand, ptr %253, i32 0, i32 3
  %255 = load i32, ptr %254, align 4, !tbaa !97
  call void %242(ptr noundef %243, ptr noundef %246, i64 noundef %249, i32 noundef %252, i32 noundef %255)
  call void @llvm.lifetime.end.p0(i64 8, ptr %22) #13
  br label %256

256:                                              ; preds = %230
  %257 = load i32, ptr %17, align 4, !tbaa !49
  %258 = add nsw i32 %257, -1
  store i32 %258, ptr %17, align 4, !tbaa !49
  br label %227, !llvm.loop !160

259:                                              ; preds = %227
  call void @llvm.lifetime.end.p0(i64 8, ptr %19) #13
  call void @llvm.lifetime.end.p0(i64 4, ptr %18) #13
  call void @llvm.lifetime.end.p0(i64 4, ptr %17) #13
  call void @llvm.lifetime.end.p0(i64 4, ptr %16) #13
  call void @llvm.lifetime.end.p0(i64 4, ptr %15) #13
  call void @llvm.lifetime.end.p0(i64 4, ptr %14) #13
  call void @llvm.lifetime.end.p0(i64 4, ptr %13) #13
  call void @llvm.lifetime.end.p0(i64 8, ptr %12) #13
  call void @llvm.lifetime.end.p0(i64 8, ptr %11) #13
  call void @llvm.lifetime.end.p0(i64 8, ptr %10) #13
  call void @llvm.lifetime.end.p0(i64 4, ptr %9) #13
  call void @llvm.lifetime.end.p0(i64 8, ptr %8) #13
  call void @llvm.lifetime.end.p0(i64 8, ptr %7) #13
  call void @llvm.lifetime.end.p0(i64 8, ptr %6) #13
  call void @llvm.lifetime.end.p0(i64 8, ptr %5) #13
  ret i32 0
}