; Function Attrs: nounwind uwtable
define internal noundef i32 @dwt_plane(ptr readnone captures(none) %0, ptr noundef %1) #6 {
  %3 = load ptr, ptr %1, align 8, !tbaa !117
  %4 = getelementptr inbounds nuw i8, ptr %1, i64 16
  %5 = load ptr, ptr %4, align 8, !tbaa !125
  %6 = getelementptr inbounds nuw i8, ptr %1, i64 24
  %7 = load i64, ptr %6, align 8, !tbaa !126
  %8 = getelementptr inbounds nuw i8, ptr %1, i64 32
  %9 = load i32, ptr %8, align 8, !tbaa !122
  %10 = getelementptr inbounds nuw i8, ptr %1, i64 8
  %11 = load ptr, ptr %10, align 8, !tbaa !123
  %12 = getelementptr inbounds nuw i8, ptr %1, i64 40
  %13 = getelementptr inbounds nuw i8, ptr %11, i64 480
  %14 = load ptr, ptr %13, align 8, !tbaa !83
  %15 = getelementptr inbounds nuw i8, ptr %3, i64 2968
  %16 = load i32, ptr %15, align 8, !tbaa !131
  %17 = getelementptr inbounds nuw i8, ptr %3, i64 2988
  %18 = load i32, ptr %17, align 4, !tbaa !45
  %19 = add nsw i32 %18, 1
  %20 = getelementptr inbounds nuw i8, ptr %3, i64 1940
  %21 = load i32, ptr %20, align 4, !tbaa !72
  %22 = add nsw i32 %21, -1
  %23 = zext nneg i32 %22 to i64
  %24 = ashr i64 %7, %23
  switch i32 %9, label %30 [
    i32 1, label %25
    i32 2, label %27
  ]

25:                                               ; preds = %2
  %26 = shl i64 %24, 1
  br label %30

27:                                               ; preds = %2
  %28 = shl i64 %24, 1
  %sext = shl i64 %24, 32
  %29 = ashr exact i64 %sext, 32
  br label %30

30:                                               ; preds = %2, %27, %25
  %.082 = phi i64 [ 0, %25 ], [ %29, %27 ], [ 0, %2 ]
  %.081 = phi i64 [ %26, %25 ], [ %28, %27 ], [ %24, %2 ]
  %31 = icmp eq i32 %21, 1
  %32 = getelementptr inbounds nuw i8, ptr %11, i64 492
  %33 = load i32, ptr %32, align 4, !tbaa !78
  %34 = mul nsw i32 %33, %19
  %35 = icmp sgt i32 %34, 0
  br i1 %31, label %36, label %64

36:                                               ; preds = %30
  br i1 %35, label %.preheader.lr.ph, label %.loopexit

.preheader.lr.ph:                                 ; preds = %36
  %37 = getelementptr inbounds i8, ptr %5, i64 %.082
  %38 = getelementptr inbounds nuw i8, ptr %11, i64 488
  %39 = getelementptr inbounds nuw i8, ptr %3, i64 1936
  %40 = getelementptr inbounds nuw i8, ptr %11, i64 504
  br label %.preheader

.preheader:                                       ; preds = %.preheader.lr.ph, %._crit_edge102
  %.0107 = phi ptr [ %14, %.preheader.lr.ph ], [ %58, %._crit_edge102 ]
  %.080106 = phi ptr [ %37, %.preheader.lr.ph ], [ %59, %._crit_edge102 ]
  %.084105 = phi i32 [ 0, %.preheader.lr.ph ], [ %60, %._crit_edge102 ]
  %41 = load i32, ptr %38, align 8, !tbaa !76
  %42 = icmp sgt i32 %41, 0
  br i1 %42, label %.lr.ph101, label %.preheader.._crit_edge102_crit_edge

.preheader.._crit_edge102_crit_edge:              ; preds = %.preheader
  %.pre = sext i32 %41 to i64
  br label %._crit_edge102

.lr.ph101:                                        ; preds = %.preheader, %.lr.ph101
  %indvars.iv121 = phi i64 [ %indvars.iv.next122, %.lr.ph101 ], [ 0, %.preheader ]
  %43 = getelementptr inbounds nuw i8, ptr %.080106, i64 %indvars.iv121
  %44 = load i8, ptr %43, align 1, !tbaa !95
  %45 = zext i8 %44 to i32
  %46 = load i32, ptr %39, align 8, !tbaa !74
  %47 = sub nsw i32 %45, %46
  %48 = getelementptr inbounds nuw i32, ptr %.0107, i64 %indvars.iv121
  store i32 %47, ptr %48, align 4, !tbaa !94
  %indvars.iv.next122 = add nuw nsw i64 %indvars.iv121, 1
  %49 = load i32, ptr %38, align 8, !tbaa !76
  %50 = sext i32 %49 to i64
  %51 = icmp slt i64 %indvars.iv.next122, %50
  br i1 %51, label %.lr.ph101, label %._crit_edge102.loopexit, !llvm.loop !164

._crit_edge102.loopexit:                          ; preds = %.lr.ph101
  %52 = and i64 %indvars.iv.next122, 4294967295
  br label %._crit_edge102

._crit_edge102:                                   ; preds = %.preheader.._crit_edge102_crit_edge, %._crit_edge102.loopexit
  %.pre-phi = phi i64 [ %.pre, %.preheader.._crit_edge102_crit_edge ], [ %50, %._crit_edge102.loopexit ]
  %.086.lcssa = phi i64 [ 0, %.preheader.._crit_edge102_crit_edge ], [ %52, %._crit_edge102.loopexit ]
  %53 = getelementptr inbounds nuw i32, ptr %.0107, i64 %.086.lcssa
  %54 = load i64, ptr %40, align 8, !tbaa !82
  %55 = sub nsw i64 %54, %.pre-phi
  %56 = shl i64 %55, 2
  tail call void @llvm.memset.p0.i64(ptr align 4 %53, i8 0, i64 %56, i1 false)
  %57 = load i64, ptr %40, align 8, !tbaa !82
  %58 = getelementptr inbounds i32, ptr %.0107, i64 %57
  %59 = getelementptr inbounds i8, ptr %.080106, i64 %.081
  %60 = add nsw i32 %.084105, %19
  %61 = load i32, ptr %32, align 4, !tbaa !78
  %62 = mul nsw i32 %61, %19
  %63 = icmp slt i32 %60, %62
  br i1 %63, label %.preheader, label %.loopexit, !llvm.loop !165

64:                                               ; preds = %30
  br i1 %35, label %.preheader91.lr.ph, label %.loopexit

.preheader91.lr.ph:                               ; preds = %64
  %65 = getelementptr inbounds i16, ptr %5, i64 %.082
  %66 = getelementptr inbounds nuw i8, ptr %11, i64 488
  %67 = getelementptr inbounds nuw i8, ptr %3, i64 1936
  %68 = getelementptr inbounds nuw i8, ptr %11, i64 504
  br label %.preheader91

.preheader91:                                     ; preds = %.preheader91.lr.ph, %._crit_edge
  %.298 = phi ptr [ %14, %.preheader91.lr.ph ], [ %86, %._crit_edge ]
  %.07997 = phi ptr [ %65, %.preheader91.lr.ph ], [ %87, %._crit_edge ]
  %.18596 = phi i32 [ 0, %.preheader91.lr.ph ], [ %88, %._crit_edge ]
  %69 = load i32, ptr %66, align 8, !tbaa !76
  %70 = icmp sgt i32 %69, 0
  br i1 %70, label %.lr.ph, label %.preheader91.._crit_edge_crit_edge

.preheader91.._crit_edge_crit_edge:               ; preds = %.preheader91
  %.pre127 = sext i32 %69 to i64
  br label %._crit_edge

.lr.ph:                                           ; preds = %.preheader91, %.lr.ph
  %indvars.iv = phi i64 [ %indvars.iv.next, %.lr.ph ], [ 0, %.preheader91 ]
  %71 = getelementptr inbounds nuw i16, ptr %.07997, i64 %indvars.iv
  %72 = load i16, ptr %71, align 2, !tbaa !114
  %73 = zext i16 %72 to i32
  %74 = load i32, ptr %67, align 8, !tbaa !74
  %75 = sub nsw i32 %73, %74
  %76 = getelementptr inbounds nuw i32, ptr %.298, i64 %indvars.iv
  store i32 %75, ptr %76, align 4, !tbaa !94
  %indvars.iv.next = add nuw nsw i64 %indvars.iv, 1
  %77 = load i32, ptr %66, align 8, !tbaa !76
  %78 = sext i32 %77 to i64
  %79 = icmp slt i64 %indvars.iv.next, %78
  br i1 %79, label %.lr.ph, label %._crit_edge.loopexit, !llvm.loop !166

._crit_edge.loopexit:                             ; preds = %.lr.ph
  %80 = and i64 %indvars.iv.next, 4294967295
  br label %._crit_edge

._crit_edge:                                      ; preds = %.preheader91.._crit_edge_crit_edge, %._crit_edge.loopexit
  %.pre-phi128 = phi i64 [ %.pre127, %.preheader91.._crit_edge_crit_edge ], [ %78, %._crit_edge.loopexit ]
  %.187.lcssa = phi i64 [ 0, %.preheader91.._crit_edge_crit_edge ], [ %80, %._crit_edge.loopexit ]
  %81 = getelementptr inbounds nuw i32, ptr %.298, i64 %.187.lcssa
  %82 = load i64, ptr %68, align 8, !tbaa !82
  %83 = sub nsw i64 %82, %.pre-phi128
  %84 = shl i64 %83, 2
  tail call void @llvm.memset.p0.i64(ptr align 4 %81, i8 0, i64 %84, i1 false)
  %85 = load i64, ptr %68, align 8, !tbaa !82
  %86 = getelementptr inbounds i32, ptr %.298, i64 %85
  %87 = getelementptr inbounds i16, ptr %.07997, i64 %.081
  %88 = add nsw i32 %.18596, %19
  %89 = load i32, ptr %32, align 4, !tbaa !78
  %90 = mul nsw i32 %89, %19
  %91 = icmp slt i32 %88, %90
  br i1 %91, label %.preheader91, label %.loopexit, !llvm.loop !167

.loopexit:                                        ; preds = %._crit_edge, %._crit_edge102, %64, %36
  %92 = phi i32 [ %33, %36 ], [ %33, %64 ], [ %61, %._crit_edge102 ], [ %89, %._crit_edge ]
  %.1 = phi ptr [ %14, %36 ], [ %14, %64 ], [ %58, %._crit_edge102 ], [ %86, %._crit_edge ]
  %93 = getelementptr inbounds nuw i8, ptr %11, i64 504
  %94 = load i64, ptr %93, align 8, !tbaa !82
  %95 = getelementptr inbounds nuw i8, ptr %11, i64 500
  %96 = load i32, ptr %95, align 4, !tbaa !81
  %97 = sub nsw i32 %96, %92
  %98 = sext i32 %97 to i64
  %99 = shl i64 %94, 2
  %100 = mul i64 %99, %98
  tail call void @llvm.memset.p0.i64(ptr align 4 %.1, i8 0, i64 %100, i1 false)
  %101 = getelementptr inbounds nuw i8, ptr %3, i64 2972
  %102 = load i32, ptr %101, align 4, !tbaa !79
  %103 = icmp sgt i32 %102, 0
  br i1 %103, label %.lr.ph111, label %._crit_edge112

.lr.ph111:                                        ; preds = %.loopexit
  %104 = getelementptr inbounds nuw i8, ptr %1, i64 56
  %105 = sext i32 %16 to i64
  %106 = getelementptr inbounds [7 x ptr], ptr %104, i64 0, i64 %105
  %107 = zext nneg i32 %102 to i64
  br label %108

108:                                              ; preds = %.lr.ph111, %108
  %indvars.iv124 = phi i64 [ %107, %.lr.ph111 ], [ %indvars.iv.next125, %108 ]
  %indvars.iv.next125 = add nsw i64 %indvars.iv124, -1
  %109 = getelementptr inbounds nuw [5 x [4 x %struct.SubBand]], ptr %11, i64 0, i64 %indvars.iv.next125
  %110 = load ptr, ptr %106, align 8, !tbaa !168
  %111 = load ptr, ptr %13, align 8, !tbaa !83
  %112 = load i64, ptr %93, align 8, !tbaa !82
  %113 = getelementptr inbounds nuw i8, ptr %109, i64 16
  %114 = load i32, ptr %113, align 8, !tbaa !85
  %115 = getelementptr inbounds nuw i8, ptr %109, i64 20
  %116 = load i32, ptr %115, align 4, !tbaa !87
  tail call void %110(ptr noundef nonnull %12, ptr noundef %111, i64 noundef %112, i32 noundef %114, i32 noundef %116) #13
  %117 = icmp samesign ugt i64 %indvars.iv124, 1
  br i1 %117, label %108, label %._crit_edge112, !llvm.loop !169

._crit_edge112:                                   ; preds = %108, %.loopexit
  ret i32 0
}